; Function Attrs: mustprogress uwtable
define dso_local noundef zeroext i1 @_ZNK17cmQtAutoGenerator5InfoT7GetUIntERKNSt7__cxx1112basic_stringIcSt11char_traitsIcESaIcEEERjb(ptr noundef nonnull align 8 dereferenceable(48) %0, ptr noundef nonnull align 8 dereferenceable(32) %1, ptr nocapture noundef nonnull writeonly align 4 dereferenceable(4) %2, i1 noundef zeroext %3) local_unnamed_addr #3 align 2 personality ptr @__gxx_personality_v0 {
  %5 = alloca [2 x %"struct.std::pair.15"], align 8
  %6 = alloca %"class.std::__cxx11::basic_string", align 8
  %7 = tail call noundef nonnull align 8 dereferenceable(40) ptr @_ZNK4Json5ValueixERKNSt7__cxx1112basic_stringIcSt11char_traitsIcESaIcEEE(ptr noundef nonnull align 8 dereferenceable(40) %0, ptr noundef nonnull align 8 dereferenceable(32) %1)
  %8 = tail call noundef zeroext i1 @_ZNK4Json5Value6isUIntEv(ptr noundef nonnull align 8 dereferenceable(40) %7)
  br i1 %8, label %9, label %11

9:                                                ; preds = %4
  %10 = tail call noundef i32 @_ZNK4Json5Value6asUIntEv(ptr noundef nonnull align 8 dereferenceable(40) %7)
  store i32 %10, ptr %2, align 4
  br label %30

11:                                               ; preds = %4
  %12 = tail call noundef zeroext i1 @_ZNK4Json5Value6isNullEv(ptr noundef nonnull align 8 dereferenceable(40) %7)
  %.not = xor i1 %12, true
  %brmerge = or i1 %.not, %3
  br i1 %brmerge, label %13, label %30

13:                                               ; preds = %11
  call void @llvm.lifetime.start.p0(i64 48, ptr nonnull %5)
  %14 = tail call { i64, ptr } @_ZNKSt7__cxx1112basic_stringIcSt11char_traitsIcESaIcEEcvSt17basic_string_viewIcS2_EEv(ptr noundef nonnull align 8 dereferenceable(32) %1) #21, !noalias !226
  %15 = extractvalue { i64, ptr } %14, 0
  %16 = extractvalue { i64, ptr } %14, 1
  store i64 %15, ptr %5, align 8, !alias.scope !229, !noalias !226
  %.sroa.2.0..sroa_idx.i.i = getelementptr inbounds i8, ptr %5, i64 8
  store ptr %16, ptr %.sroa.2.0..sroa_idx.i.i, align 8, !alias.scope !229, !noalias !226
  %17 = getelementptr inbounds i8, ptr %5, i64 16
  store ptr null, ptr %17, align 8, !alias.scope !229, !noalias !226
  %18 = getelementptr inbounds i8, ptr %5, i64 24
  store i64 28, ptr %18, align 8, !alias.scope !232, !noalias !226
  %.sroa.2.0..sroa_idx.i6.i = getelementptr inbounds i8, ptr %5, i64 32
  store ptr @.str.17, ptr %.sroa.2.0..sroa_idx.i6.i, align 8, !alias.scope !232, !noalias !226
  %19 = getelementptr inbounds i8, ptr %5, i64 40
  store ptr null, ptr %19, align 8, !alias.scope !232, !noalias !226
  call void @_Z10cmCatViewsSt16initializer_listISt4pairISt17basic_string_viewIcSt11char_traitsIcEEPNSt7__cxx1112basic_stringIcS3_SaIcEEEEE(ptr dead_on_unwind nonnull writable sret(%"class.std::__cxx11::basic_string") align 8 %6, ptr nonnull %5, i64 2)
  call void @llvm.lifetime.end.p0(i64 48, ptr nonnull %5)
  %20 = call { i64, ptr } @_ZNKSt7__cxx1112basic_stringIcSt11char_traitsIcESaIcEEcvSt17basic_string_viewIcS2_EEv(ptr noundef nonnull align 8 dereferenceable(32) %6) #21
  %21 = extractvalue { i64, ptr } %20, 0
  %22 = extractvalue { i64, ptr } %20, 1
  %23 = getelementptr inbounds i8, ptr %0, i64 40
  %24 = load ptr, ptr %23, align 8
  %25 = getelementptr inbounds i8, ptr %24, i64 8
  %26 = load i32, ptr %25, align 8
  %27 = invoke noundef zeroext i1 @_ZNK17cmQtAutoGenerator5InfoT8LogErrorEN11cmQtAutoGen4GenTESt17basic_string_viewIcSt11char_traitsIcEE(ptr noundef nonnull align 8 dereferenceable(48) %0, i32 noundef %26, i64 %21, ptr %22)
          to label %_ZNK17cmQtAutoGenerator5InfoT8LogErrorESt17basic_string_viewIcSt11char_traitsIcEE.exit unwind label %28

_ZNK17cmQtAutoGenerator5InfoT8LogErrorESt17basic_string_viewIcSt11char_traitsIcEE.exit: ; preds = %13
  call void @_ZNSt7__cxx1112basic_stringIcSt11char_traitsIcESaIcEED1Ev(ptr noundef nonnull align 8 dereferenceable(32) %6) #21
  br label %30

28:                                               ; preds = %13
  %29 = landingpad { ptr, i32 }
          cleanup
  call void @_ZNSt7__cxx1112basic_stringIcSt11char_traitsIcESaIcEED1Ev(ptr noundef nonnull align 8 dereferenceable(32) %6) #21
  resume { ptr, i32 } %29

30:                                               ; preds = %9, %11, %_ZNK17cmQtAutoGenerator5InfoT8LogErrorESt17basic_string_viewIcSt11char_traitsIcEE.exit
  %.0 = phi i1 [ false, %_ZNK17cmQtAutoGenerator5InfoT8LogErrorESt17basic_string_viewIcSt11char_traitsIcEE.exit ], [ true, %11 ], [ true, %9 ]
  ret i1 %.0
}